; Function Attrs: mustprogress nounwind uwtable
define internal noundef zeroext i1 @_ZN12_GLOBAL__N_136TSymbolDefinitionCollectingTraverser14visitAggregateEN7glslang6TVisitEPNS1_16TIntermAggregateE(ptr noundef nonnull align 8 dereferenceable(128) %0, i32 %1, ptr noundef %2) unnamed_addr #0 align 2 {
  %4 = getelementptr inbounds i8, ptr %0, i64 120
  %5 = load ptr, ptr %4, align 8
  %6 = getelementptr inbounds i8, ptr %2, i64 184
  %7 = load i32, ptr %6, align 8
  %8 = icmp eq i32 %7, 5
  br i1 %8, label %9, label %10

9:                                                ; preds = %3
  store ptr %2, ptr %4, align 8
  br label %10

10:                                               ; preds = %9, %3
  %11 = load ptr, ptr %2, align 8
  %12 = getelementptr inbounds i8, ptr %11, i64 400
  %13 = load ptr, ptr %12, align 8
  %14 = tail call noundef nonnull align 8 dereferenceable(32) ptr %13(ptr noundef nonnull align 8 dereferenceable(364) %2) #16
  %15 = getelementptr inbounds i8, ptr %14, i64 8
  %16 = getelementptr inbounds i8, ptr %14, i64 16
  %17 = load ptr, ptr %16, align 8
  %18 = load ptr, ptr %15, align 8
  %19 = ptrtoint ptr %17 to i64
  %20 = ptrtoint ptr %18 to i64
  %21 = sub i64 %19, %20
  %22 = lshr exact i64 %21, 3
  %23 = trunc i64 %22 to i32
  %24 = icmp sgt i32 %23, 0
  br i1 %24, label %.lr.ph, label %._crit_edge

.lr.ph:                                           ; preds = %10
  %25 = getelementptr inbounds i8, ptr %0, i64 80
  br label %26

26:                                               ; preds = %.lr.ph, %26
  %indvars.iv = phi i64 [ 0, %.lr.ph ], [ %indvars.iv.next, %26 ]
  tail call void @_ZNSt7__cxx1112basic_stringIcSt11char_traitsIcESaIcEE5clearEv(ptr noundef nonnull align 8 dereferenceable(32) %25) #16
  %27 = load ptr, ptr %15, align 8
  %28 = getelementptr inbounds ptr, ptr %27, i64 %indvars.iv
  %29 = load ptr, ptr %28, align 8
  %30 = load ptr, ptr %29, align 8
  %31 = getelementptr inbounds i8, ptr %30, i64 16
  %32 = load ptr, ptr %31, align 8
  tail call void %32(ptr noundef nonnull align 8 dereferenceable(32) %29, ptr noundef nonnull %0) #16
  %indvars.iv.next = add nuw nsw i64 %indvars.iv, 1
  %33 = load ptr, ptr %16, align 8
  %34 = load ptr, ptr %15, align 8
  %35 = ptrtoint ptr %33 to i64
  %36 = ptrtoint ptr %34 to i64
  %37 = sub i64 %35, %36
  %sext = shl i64 %37, 29
  %38 = ashr i64 %sext, 32
  %39 = icmp slt i64 %indvars.iv.next, %38
  br i1 %39, label %26, label %._crit_edge, !llvm.loop !54

._crit_edge:                                      ; preds = %26, %10
  store ptr %5, ptr %4, align 8
  ret i1 false
}